(dp0
Vfollow_request_sent
p1
I00
sVprofile_use_background_image
p2
I01
sVdefault_profile_image
p3
I01
sVid
p4
I87379283
sVverified
p5
I00
sVprofile_image_url_https
p6
Vhttps://si0.twimg.com/sticky/default_profile_images/default_profile_5_normal.png
p7
sVprofile_sidebar_fill_color
p8
VDDEEF6
p9
sVprofile_text_color
p10
V333333
p11
sVfollowers_count
p12
I0
sVprofile_sidebar_border_color
p13
VC0DEED
p14
sVlocation
p15
V
p16
sVprofile_background_color
p17
VC0DEED
p18
sVlisted_count
p19
I0
sVstatus
p20
(dp21
Vfavorited
p22
I00
sVcontributors
p23
NsVtruncated
p24
I00
sVtext
p25
Vthinking to start up my own company
p26
sVcreated_at
p27
VWed Nov 04 06:34:26 +0000 2009
p28
sVretweeted
p29
I00
sVin_reply_to_status_id_str
p30
NsVcoordinates
p31
NsVin_reply_to_user_id_str
p32
NsVsource
p33
Vweb
p34
sVin_reply_to_status_id
p35
NsVplace
p36
NsVin_reply_to_user_id
p37
NsVin_reply_to_screen_name
p38
NsVretweet_count
p39
I0
sVgeo
p40
NsVid
p41
I5414309200
sVid_str
p42
V5414309200
p43
ssVutc_offset
p44
NsVstatuses_count
p45
I1
sVdescription
p46
g16
sVfriends_count
p47
I2
sVprofile_background_image_url_https
p48
Vhttps://si0.twimg.com/images/themes/theme1/bg.png
p49
sVprofile_link_color
p50
V0084B4
p51
sVprofile_image_url
p52
Vhttp://a0.twimg.com/sticky/default_profile_images/default_profile_5_normal.png
p53
sVnotifications
p54
I00
sVshow_all_inline_media
p55
I00
sVgeo_enabled
p56
I00
sVid_str
p57
V87379283
p58
sVprofile_background_image_url
p59
Vhttp://a0.twimg.com/images/themes/theme1/bg.png
p60
sVname
p61
Vhuang xia
p62
sVlang
p63
Ven
p64
sVfollowing
p65
I00
sVprofile_background_tile
p66
I00
sVfavourites_count
p67
I0
sVscreen_name
p68
Vxiahuang119
p69
sVurl
p70
NsVcreated_at
p71
VWed Nov 04 06:32:08 +0000 2009
p72
sVcontributors_enabled
p73
I00
sVtime_zone
p74
NsS'access_token'
p75
S'oauth_token_secret=dHgUCMMyJ0vbgNwcY6wHBAtcIsnJmxJrJd92XbHsOw&oauth_token=87379283-0XBIiNuGlyqaAhC2GM0Q210bLZg0zcu6LQ5v0CnRV'
p76
sVprotected
p77
I00
sVdefault_profile
p78
I01
sVis_translator
p79
I00
s.